; Function Attrs: nounwind uwtable
define nonnull ptr @l_Std_Time_PlainDateTime_weekday___boxed(ptr noundef %0) local_unnamed_addr #1 {
  %2 = getelementptr inbounds nuw i8, ptr %0, i64 8
  %3 = load ptr, ptr %2, align 8, !tbaa !5
  %4 = ptrtoint ptr %3 to i64
  %5 = and i64 %4, 1
  %.not.i = icmp eq i64 %5, 0
  br i1 %.not.i, label %6, label %lean_inc.exit.i

6:                                                ; preds = %1
  %.val.i.i = load i32, ptr %3, align 4, !tbaa !9
  %7 = icmp sgt i32 %.val.i.i, 0
  br i1 %7, label %8, label %10, !prof !12

8:                                                ; preds = %6
  %9 = add nuw i32 %.val.i.i, 1
  store i32 %9, ptr %3, align 4, !tbaa !9
  br label %lean_inc.exit.i

10:                                               ; preds = %6
  %.not.i4.i = icmp eq i32 %.val.i.i, 0
  br i1 %.not.i4.i, label %lean_inc.exit.i, label %11

11:                                               ; preds = %10
  tail call void @lean_inc_ref_cold(ptr noundef nonnull %3) #5
  br label %lean_inc.exit.i

lean_inc.exit.i:                                  ; preds = %11, %10, %8, %1
  %12 = ptrtoint ptr %0 to i64
  %13 = and i64 %12, 1
  %.not5.i = icmp eq i64 %13, 0
  br i1 %.not5.i, label %14, label %l_Std_Time_PlainDateTime_weekday.exit

14:                                               ; preds = %lean_inc.exit.i
  %15 = load i32, ptr %0, align 4, !tbaa !9
  %16 = icmp sgt i32 %15, 1
  br i1 %16, label %17, label %19, !prof !12

17:                                               ; preds = %14
  %18 = add nsw i32 %15, -1
  store i32 %18, ptr %0, align 4, !tbaa !9
  br label %l_Std_Time_PlainDateTime_weekday.exit

19:                                               ; preds = %14
  %.not.i.i = icmp eq i32 %15, 0
  br i1 %.not.i.i, label %l_Std_Time_PlainDateTime_weekday.exit, label %20

20:                                               ; preds = %19
  tail call void @lean_dec_ref_cold(ptr noundef nonnull %0) #5
  br label %l_Std_Time_PlainDateTime_weekday.exit

l_Std_Time_PlainDateTime_weekday.exit:            ; preds = %lean_inc.exit.i, %17, %19, %20
  %21 = tail call zeroext i8 @l_Std_Time_PlainDate_weekday(ptr noundef %3) #5
  %22 = zext i8 %21 to i64
  %23 = shl nuw nsw i64 %22, 1
  %24 = or disjoint i64 %23, 1
  %25 = inttoptr i64 %24 to ptr
  ret ptr %25
}